target datalayout = "e-m:e-p270:32:32-p271:32:32-p272:64:64-i64:64-i128:128-f80:128-n8:16:32:64-S128"
target triple = "x86_64-pc-linux-gnu"

%struct.PyVarObject = type { %struct._object, i64 }
%struct._object = type { %union.anon, ptr }
%union.anon = type { i64 }
%struct._PyManagedBufferObject = type { %struct._object, i32, i64, %struct.Py_buffer }
%struct.Py_buffer = type { ptr, ptr, i64, i64, i32, i32, ptr, ptr, ptr, ptr, ptr }
%struct.PyMemoryViewObject = type { %struct.PyVarObject, ptr, i64, i32, i64, %struct.Py_buffer, ptr, [1 x i64] }

@PyExc_ValueError = external global ptr, align 8
@.str.8 = private unnamed_addr constant [50 x i8] c"operation forbidden on released memoryview object\00", align 1
@PyExc_NotImplementedError = external global ptr, align 8
@.str.13 = private unnamed_addr constant [36 x i8] c"memoryview: format %s not supported\00", align 1

; Function Attrs: inlinehint nounwind uwtable
define internal ptr @unpack_single(ptr noundef %0, ptr noundef %1, ptr noundef %2) #3 {
  %4 = alloca ptr, align 8
  %5 = alloca ptr, align 8
  %6 = alloca ptr, align 8
  %7 = alloca ptr, align 8
  %8 = alloca i64, align 8
  %9 = alloca i64, align 8
  %10 = alloca i64, align 8
  %11 = alloca i64, align 8
  %12 = alloca i64, align 8
  %13 = alloca i64, align 8
  %14 = alloca double, align 8
  %15 = alloca i8, align 1
  %16 = alloca ptr, align 8
  %17 = alloca i32, align 4
  %18 = alloca i32, align 4
  %19 = alloca i16, align 2
  %20 = alloca i32, align 4
  %21 = alloca i64, align 8
  %22 = alloca i8, align 1
  %23 = alloca i16, align 2
  %24 = alloca i32, align 4
  %25 = alloca i64, align 8
  %26 = alloca i64, align 8
  %27 = alloca i64, align 8
  %28 = alloca i64, align 8
  %29 = alloca i64, align 8
  %30 = alloca float, align 4
  %31 = alloca double, align 8
  %32 = alloca ptr, align 8
  store ptr %0, ptr %5, align 8, !tbaa !9
  store ptr %1, ptr %6, align 8, !tbaa !22
  store ptr %2, ptr %7, align 8, !tbaa !22
  call void @llvm.lifetime.start.p0(i64 8, ptr %8) #9
  call void @llvm.lifetime.start.p0(i64 8, ptr %9) #9
  call void @llvm.lifetime.start.p0(i64 8, ptr %10) #9
  call void @llvm.lifetime.start.p0(i64 8, ptr %11) #9
  call void @llvm.lifetime.start.p0(i64 8, ptr %12) #9
  call void @llvm.lifetime.start.p0(i64 8, ptr %13) #9
  call void @llvm.lifetime.start.p0(i64 8, ptr %14) #9
  call void @llvm.lifetime.start.p0(i64 1, ptr %15) #9
  call void @llvm.lifetime.start.p0(i64 8, ptr %16) #9
  %33 = load ptr, ptr %5, align 8, !tbaa !9
  %34 = getelementptr inbounds nuw %struct.PyMemoryViewObject, ptr %33, i32 0, i32 3
  %35 = load i32, ptr %34, align 8, !tbaa !33
  %36 = and i32 %35, 1
  %37 = icmp ne i32 %36, 0
  br i1 %37, label %46, label %38

38:                                               ; preds = %3
  %39 = load ptr, ptr %5, align 8, !tbaa !9
  %40 = getelementptr inbounds nuw %struct.PyMemoryViewObject, ptr %39, i32 0, i32 1
  %41 = load ptr, ptr %40, align 8, !tbaa !26
  %42 = getelementptr inbounds nuw %struct._PyManagedBufferObject, ptr %41, i32 0, i32 1
  %43 = load i32, ptr %42, align 8, !tbaa !10
  %44 = and i32 %43, 1
  %45 = icmp ne i32 %44, 0
  br i1 %45, label %46, label %48

46:                                               ; preds = %38, %3
  %47 = load ptr, ptr @PyExc_ValueError, align 8, !tbaa !4
  call void @PyErr_SetString(ptr noundef %47, ptr noundef @.str.8)
  store ptr null, ptr %4, align 8
  store i32 1, ptr %17, align 4
  br label %196

48:                                               ; preds = %38
  call void @llvm.lifetime.start.p0(i64 4, ptr %18) #9
  store i32 1, ptr %18, align 4, !tbaa !21
  %49 = load ptr, ptr %7, align 8, !tbaa !22
  %50 = getelementptr i8, ptr %49, i64 0
  %51 = load i8, ptr %50, align 1, !tbaa !29
  %52 = sext i8 %51 to i32
  switch i32 %52, label %156 [
    i32 66, label %53
    i32 98, label %56
    i32 104, label %60
    i32 105, label %67
    i32 108, label %74
    i32 63, label %80
    i32 72, label %88
    i32 73, label %95
    i32 76, label %102
    i32 113, label %108
    i32 81, label %114
    i32 110, label %120
    i32 78, label %126
    i32 102, label %132
    i32 100, label %139
    i32 101, label %145
    i32 99, label %149
    i32 80, label %150
  ]

53:                                               ; preds = %48
  %54 = load ptr, ptr %6, align 8, !tbaa !22
  %55 = load i8, ptr %54, align 1, !tbaa !29
  store i8 %55, ptr %15, align 1, !tbaa !29
  br label %157

56:                                               ; preds = %48
  %57 = load ptr, ptr %6, align 8, !tbaa !22
  %58 = load i8, ptr %57, align 1, !tbaa !29
  %59 = sext i8 %58 to i64
  store i64 %59, ptr %12, align 8, !tbaa !23
  br label %161

60:                                               ; preds = %48
  br label %61

61:                                               ; preds = %60
  call void @llvm.lifetime.start.p0(i64 2, ptr %19) #9
  %62 = load ptr, ptr %6, align 8, !tbaa !22
  call void @llvm.memcpy.p0.p0.i64(ptr align 2 %19, ptr align 1 %62, i64 2, i1 false)
  %63 = load i16, ptr %19, align 2, !tbaa !166
  %64 = sext i16 %63 to i64
  store i64 %64, ptr %12, align 8, !tbaa !23
  call void @llvm.lifetime.end.p0(i64 2, ptr %19) #9
  br label %65

65:                                               ; preds = %61
  br label %66

66:                                               ; preds = %65
  br label %161

67:                                               ; preds = %48
  br label %68

68:                                               ; preds = %67
  call void @llvm.lifetime.start.p0(i64 4, ptr %20) #9
  %69 = load ptr, ptr %6, align 8, !tbaa !22
  call void @llvm.memcpy.p0.p0.i64(ptr align 4 %20, ptr align 1 %69, i64 4, i1 false)
  %70 = load i32, ptr %20, align 4, !tbaa !21
  %71 = sext i32 %70 to i64
  store i64 %71, ptr %12, align 8, !tbaa !23
  call void @llvm.lifetime.end.p0(i64 4, ptr %20) #9
  br label %72

72:                                               ; preds = %68
  br label %73

73:                                               ; preds = %72
  br label %161

74:                                               ; preds = %48
  br label %75

75:                                               ; preds = %74
  call void @llvm.lifetime.start.p0(i64 8, ptr %21) #9
  %76 = load ptr, ptr %6, align 8, !tbaa !22
  call void @llvm.memcpy.p0.p0.i64(ptr align 8 %21, ptr align 1 %76, i64 8, i1 false)
  %77 = load i64, ptr %21, align 8, !tbaa !23
  store i64 %77, ptr %12, align 8, !tbaa !23
  call void @llvm.lifetime.end.p0(i64 8, ptr %21) #9
  br label %78

78:                                               ; preds = %75
  br label %79

79:                                               ; preds = %78
  br label %161

80:                                               ; preds = %48
  br label %81

81:                                               ; preds = %80
  call void @llvm.lifetime.start.p0(i64 1, ptr %22) #9
  %82 = load ptr, ptr %6, align 8, !tbaa !22
  call void @llvm.memcpy.p0.p0.i64(ptr align 1 %22, ptr align 1 %82, i64 1, i1 false)
  %83 = load i8, ptr %22, align 1, !tbaa !167, !range !168, !noundef !169
  %84 = trunc i8 %83 to i1
  %85 = zext i1 %84 to i64
  store i64 %85, ptr %12, align 8, !tbaa !23
  call void @llvm.lifetime.end.p0(i64 1, ptr %22) #9
  br label %86

86:                                               ; preds = %81
  br label %87

87:                                               ; preds = %86
  br label %182

88:                                               ; preds = %48
  br label %89

89:                                               ; preds = %88
  call void @llvm.lifetime.start.p0(i64 2, ptr %23) #9
  %90 = load ptr, ptr %6, align 8, !tbaa !22
  call void @llvm.memcpy.p0.p0.i64(ptr align 2 %23, ptr align 1 %90, i64 2, i1 false)
  %91 = load i16, ptr %23, align 2, !tbaa !166
  %92 = zext i16 %91 to i64
  store i64 %92, ptr %9, align 8, !tbaa !23
  call void @llvm.lifetime.end.p0(i64 2, ptr %23) #9
  br label %93

93:                                               ; preds = %89
  br label %94

94:                                               ; preds = %93
  br label %164

95:                                               ; preds = %48
  br label %96

96:                                               ; preds = %95
  call void @llvm.lifetime.start.p0(i64 4, ptr %24) #9
  %97 = load ptr, ptr %6, align 8, !tbaa !22
  call void @llvm.memcpy.p0.p0.i64(ptr align 4 %24, ptr align 1 %97, i64 4, i1 false)
  %98 = load i32, ptr %24, align 4, !tbaa !21
  %99 = zext i32 %98 to i64
  store i64 %99, ptr %9, align 8, !tbaa !23
  call void @llvm.lifetime.end.p0(i64 4, ptr %24) #9
  br label %100

100:                                              ; preds = %96
  br label %101

101:                                              ; preds = %100
  br label %164

102:                                              ; preds = %48
  br label %103

103:                                              ; preds = %102
  call void @llvm.lifetime.start.p0(i64 8, ptr %25) #9
  %104 = load ptr, ptr %6, align 8, !tbaa !22
  call void @llvm.memcpy.p0.p0.i64(ptr align 8 %25, ptr align 1 %104, i64 8, i1 false)
  %105 = load i64, ptr %25, align 8, !tbaa !23
  store i64 %105, ptr %9, align 8, !tbaa !23
  call void @llvm.lifetime.end.p0(i64 8, ptr %25) #9
  br label %106

106:                                              ; preds = %103
  br label %107

107:                                              ; preds = %106
  br label %164

108:                                              ; preds = %48
  br label %109

109:                                              ; preds = %108
  call void @llvm.lifetime.start.p0(i64 8, ptr %26) #9
  %110 = load ptr, ptr %6, align 8, !tbaa !22
  call void @llvm.memcpy.p0.p0.i64(ptr align 8 %26, ptr align 1 %110, i64 8, i1 false)
  %111 = load i64, ptr %26, align 8, !tbaa !170
  store i64 %111, ptr %11, align 8, !tbaa !170
  call void @llvm.lifetime.end.p0(i64 8, ptr %26) #9
  br label %112

112:                                              ; preds = %109
  br label %113

113:                                              ; preds = %112
  br label %167

114:                                              ; preds = %48
  br label %115

115:                                              ; preds = %114
  call void @llvm.lifetime.start.p0(i64 8, ptr %27) #9
  %116 = load ptr, ptr %6, align 8, !tbaa !22
  call void @llvm.memcpy.p0.p0.i64(ptr align 8 %27, ptr align 1 %116, i64 8, i1 false)
  %117 = load i64, ptr %27, align 8, !tbaa !170
  store i64 %117, ptr %8, align 8, !tbaa !170
  call void @llvm.lifetime.end.p0(i64 8, ptr %27) #9
  br label %118

118:                                              ; preds = %115
  br label %119

119:                                              ; preds = %118
  br label %170

120:                                              ; preds = %48
  br label %121

121:                                              ; preds = %120
  call void @llvm.lifetime.start.p0(i64 8, ptr %28) #9
  %122 = load ptr, ptr %6, align 8, !tbaa !22
  call void @llvm.memcpy.p0.p0.i64(ptr align 8 %28, ptr align 1 %122, i64 8, i1 false)
  %123 = load i64, ptr %28, align 8, !tbaa !23
  store i64 %123, ptr %13, align 8, !tbaa !23
  call void @llvm.lifetime.end.p0(i64 8, ptr %28) #9
  br label %124

124:                                              ; preds = %121
  br label %125

125:                                              ; preds = %124
  br label %173

126:                                              ; preds = %48
  br label %127

127:                                              ; preds = %126
  call void @llvm.lifetime.start.p0(i64 8, ptr %29) #9
  %128 = load ptr, ptr %6, align 8, !tbaa !22
  call void @llvm.memcpy.p0.p0.i64(ptr align 8 %29, ptr align 1 %128, i64 8, i1 false)
  %129 = load i64, ptr %29, align 8, !tbaa !23
  store i64 %129, ptr %10, align 8, !tbaa !23
  call void @llvm.lifetime.end.p0(i64 8, ptr %29) #9
  br label %130

130:                                              ; preds = %127
  br label %131

131:                                              ; preds = %130
  br label %176

132:                                              ; preds = %48
  br label %133

133:                                              ; preds = %132
  call void @llvm.lifetime.start.p0(i64 4, ptr %30) #9
  %134 = load ptr, ptr %6, align 8, !tbaa !22
  call void @llvm.memcpy.p0.p0.i64(ptr align 4 %30, ptr align 1 %134, i64 4, i1 false)
  %135 = load float, ptr %30, align 4, !tbaa !171
  %136 = fpext float %135 to double
  store double %136, ptr %14, align 8, !tbaa !173
  call void @llvm.lifetime.end.p0(i64 4, ptr %30) #9
  br label %137

137:                                              ; preds = %133
  br label %138

138:                                              ; preds = %137
  br label %179

139:                                              ; preds = %48
  br label %140

140:                                              ; preds = %139
  call void @llvm.lifetime.start.p0(i64 8, ptr %31) #9
  %141 = load ptr, ptr %6, align 8, !tbaa !22
  call void @llvm.memcpy.p0.p0.i64(ptr align 8 %31, ptr align 1 %141, i64 8, i1 false)
  %142 = load double, ptr %31, align 8, !tbaa !173
  store double %142, ptr %14, align 8, !tbaa !173
  call void @llvm.lifetime.end.p0(i64 8, ptr %31) #9
  br label %143

143:                                              ; preds = %140
  br label %144

144:                                              ; preds = %143
  br label %179

145:                                              ; preds = %48
  %146 = load ptr, ptr %6, align 8, !tbaa !22
  %147 = load i32, ptr %18, align 4, !tbaa !21
  %148 = call double @PyFloat_Unpack2(ptr noundef %146, i32 noundef %147)
  store double %148, ptr %14, align 8, !tbaa !173
  br label %179

149:                                              ; preds = %48
  br label %185

150:                                              ; preds = %48
  br label %151

151:                                              ; preds = %150
  call void @llvm.lifetime.start.p0(i64 8, ptr %32) #9
  %152 = load ptr, ptr %6, align 8, !tbaa !22
  call void @llvm.memcpy.p0.p0.i64(ptr align 8 %32, ptr align 1 %152, i64 8, i1 false)
  %153 = load ptr, ptr %32, align 8, !tbaa !9
  store ptr %153, ptr %16, align 8, !tbaa !9
  call void @llvm.lifetime.end.p0(i64 8, ptr %32) #9
  br label %154

154:                                              ; preds = %151
  br label %155

155:                                              ; preds = %154
  br label %188

156:                                              ; preds = %48
  br label %191

157:                                              ; preds = %53
  %158 = load i8, ptr %15, align 1, !tbaa !29
  %159 = zext i8 %158 to i64
  %160 = call ptr @PyLong_FromLong(i64 noundef %159)
  store ptr %160, ptr %4, align 8
  store i32 1, ptr %17, align 4
  br label %195

161:                                              ; preds = %79, %73, %66, %56
  %162 = load i64, ptr %12, align 8, !tbaa !23
  %163 = call ptr @PyLong_FromLong(i64 noundef %162)
  store ptr %163, ptr %4, align 8
  store i32 1, ptr %17, align 4
  br label %195

164:                                              ; preds = %107, %101, %94
  %165 = load i64, ptr %9, align 8, !tbaa !23
  %166 = call ptr @PyLong_FromUnsignedLong(i64 noundef %165)
  store ptr %166, ptr %4, align 8
  store i32 1, ptr %17, align 4
  br label %195

167:                                              ; preds = %113
  %168 = load i64, ptr %11, align 8, !tbaa !170
  %169 = call ptr @PyLong_FromLongLong(i64 noundef %168)
  store ptr %169, ptr %4, align 8
  store i32 1, ptr %17, align 4
  br label %195

170:                                              ; preds = %119
  %171 = load i64, ptr %8, align 8, !tbaa !170
  %172 = call ptr @PyLong_FromUnsignedLongLong(i64 noundef %171)
  store ptr %172, ptr %4, align 8
  store i32 1, ptr %17, align 4
  br label %195

173:                                              ; preds = %125
  %174 = load i64, ptr %13, align 8, !tbaa !23
  %175 = call ptr @PyLong_FromSsize_t(i64 noundef %174)
  store ptr %175, ptr %4, align 8
  store i32 1, ptr %17, align 4
  br label %195

176:                                              ; preds = %131
  %177 = load i64, ptr %10, align 8, !tbaa !23
  %178 = call ptr @PyLong_FromSize_t(i64 noundef %177)
  store ptr %178, ptr %4, align 8
  store i32 1, ptr %17, align 4
  br label %195

179:                                              ; preds = %145, %144, %138
  %180 = load double, ptr %14, align 8, !tbaa !173
  %181 = call ptr @PyFloat_FromDouble(double noundef %180)
  store ptr %181, ptr %4, align 8
  store i32 1, ptr %17, align 4
  br label %195

182:                                              ; preds = %87
  %183 = load i64, ptr %12, align 8, !tbaa !23
  %184 = call ptr @PyBool_FromLong(i64 noundef %183)
  store ptr %184, ptr %4, align 8
  store i32 1, ptr %17, align 4
  br label %195

185:                                              ; preds = %149
  %186 = load ptr, ptr %6, align 8, !tbaa !22
  %187 = call ptr @PyBytes_FromStringAndSize(ptr noundef %186, i64 noundef 1)
  store ptr %187, ptr %4, align 8
  store i32 1, ptr %17, align 4
  br label %195

188:                                              ; preds = %155
  %189 = load ptr, ptr %16, align 8, !tbaa !9
  %190 = call ptr @PyLong_FromVoidPtr(ptr noundef %189)
  store ptr %190, ptr %4, align 8
  store i32 1, ptr %17, align 4
  br label %195

191:                                              ; preds = %156
  %192 = load ptr, ptr @PyExc_NotImplementedError, align 8, !tbaa !4
  %193 = load ptr, ptr %7, align 8, !tbaa !22
  %194 = call ptr (ptr, ptr, ...) @PyErr_Format(ptr noundef %192, ptr noundef @.str.13, ptr noundef %193)
  store ptr null, ptr %4, align 8
  store i32 1, ptr %17, align 4
  br label %195

195:                                              ; preds = %191, %188, %185, %182, %179, %176, %173, %170, %167, %164, %161, %157
  call void @llvm.lifetime.end.p0(i64 4, ptr %18) #9
  br label %196

196:                                              ; preds = %195, %46
  call void @llvm.lifetime.end.p0(i64 8, ptr %16) #9
  call void @llvm.lifetime.end.p0(i64 1, ptr %15) #9
  call void @llvm.lifetime.end.p0(i64 8, ptr %14) #9
  call void @llvm.lifetime.end.p0(i64 8, ptr %13) #9
  call void @llvm.lifetime.end.p0(i64 8, ptr %12) #9
  call void @llvm.lifetime.end.p0(i64 8, ptr %11) #9
  call void @llvm.lifetime.end.p0(i64 8, ptr %10) #9
  call void @llvm.lifetime.end.p0(i64 8, ptr %9) #9
  call void @llvm.lifetime.end.p0(i64 8, ptr %8) #9
  %197 = load ptr, ptr %4, align 8
  ret ptr %197
}