; Function Attrs: inlinehint nounwind uwtable
define internal fastcc ptr @unpack_single(ptr noundef readonly captures(none) %0, ptr noundef %1, ptr noundef %2) unnamed_addr #9 {
  %4 = getelementptr inbounds nuw i8, ptr %0, i64 40
  %5 = load i32, ptr %4, align 8, !tbaa !109
  %6 = and i32 %5, 1
  %.not = icmp eq i32 %6, 0
  br i1 %.not, label %7, label %13

7:                                                ; preds = %3
  %8 = getelementptr inbounds nuw i8, ptr %0, i64 24
  %9 = load ptr, ptr %8, align 8, !tbaa !105
  %10 = getelementptr inbounds nuw i8, ptr %9, i64 16
  %11 = load i32, ptr %10, align 8, !tbaa !4
  %12 = and i32 %11, 1
  %.not63 = icmp eq i32 %12, 0
  br i1 %.not63, label %15, label %13

13:                                               ; preds = %7, %3
  %14 = load ptr, ptr @PyExc_ValueError, align 8, !tbaa !104
  tail call void @PyErr_SetString(ptr noundef %14, ptr noundef nonnull @.str.8) #14
  br label %64

15:                                               ; preds = %7
  %16 = load i8, ptr %2, align 1, !tbaa !102
  switch i8 %16, label %61 [
    i8 66, label %17
    i8 98, label %21
    i8 104, label %24
    i8 105, label %26
    i8 108, label %28
    i8 63, label %29
    i8 72, label %33
    i8 73, label %35
    i8 76, label %37
    i8 113, label %38
    i8 81, label %40
    i8 110, label %42
    i8 78, label %44
    i8 102, label %46
    i8 100, label %48
    i8 101, label %49
    i8 99, label %59
    i8 80, label %51
  ]

17:                                               ; preds = %15
  %18 = load i8, ptr %1, align 1, !tbaa !102
  %19 = zext i8 %18 to i64
  %20 = tail call ptr @PyLong_FromLong(i64 noundef %19) #14
  br label %64

21:                                               ; preds = %15
  %22 = load i8, ptr %1, align 1, !tbaa !102
  %23 = sext i8 %22 to i64
  br label %53

24:                                               ; preds = %15
  %.0.copyload24 = load i16, ptr %1, align 1
  %25 = sext i16 %.0.copyload24 to i64
  br label %53

26:                                               ; preds = %15
  %.0.copyload22 = load i32, ptr %1, align 1
  %27 = sext i32 %.0.copyload22 to i64
  br label %53

28:                                               ; preds = %15
  %.0.copyload20 = load i64, ptr %1, align 1
  br label %53

29:                                               ; preds = %15
  %.0.copyload18 = load i8, ptr %1, align 1
  %30 = and i8 %.0.copyload18, 1
  %31 = zext nneg i8 %30 to i64
  %32 = tail call ptr @PyBool_FromLong(i64 noundef %31) #14
  br label %64

33:                                               ; preds = %15
  %.0.copyload16 = load i16, ptr %1, align 1
  %34 = zext i16 %.0.copyload16 to i64
  br label %55

35:                                               ; preds = %15
  %.0.copyload14 = load i32, ptr %1, align 1
  %36 = zext i32 %.0.copyload14 to i64
  br label %55

37:                                               ; preds = %15
  %.0.copyload12 = load i64, ptr %1, align 1
  br label %55

38:                                               ; preds = %15
  %.0.copyload10 = load i64, ptr %1, align 1
  %39 = tail call ptr @PyLong_FromLongLong(i64 noundef %.0.copyload10) #14
  br label %64

40:                                               ; preds = %15
  %.0.copyload8 = load i64, ptr %1, align 1
  %41 = tail call ptr @PyLong_FromUnsignedLongLong(i64 noundef %.0.copyload8) #14
  br label %64

42:                                               ; preds = %15
  %.0.copyload6 = load i64, ptr %1, align 1
  %43 = tail call ptr @PyLong_FromSsize_t(i64 noundef %.0.copyload6) #14
  br label %64

44:                                               ; preds = %15
  %.0.copyload5 = load i64, ptr %1, align 1
  %45 = tail call ptr @PyLong_FromSize_t(i64 noundef %.0.copyload5) #14
  br label %64

46:                                               ; preds = %15
  %.0.copyload4 = load float, ptr %1, align 1
  %47 = fpext float %.0.copyload4 to double
  br label %57

48:                                               ; preds = %15
  %.0.copyload2 = load double, ptr %1, align 1
  br label %57

49:                                               ; preds = %15
  %50 = tail call double @PyFloat_Unpack2(ptr noundef %1, i32 noundef 1) #14
  br label %57

51:                                               ; preds = %15
  %.0.copyload = load ptr, ptr %1, align 1
  %52 = tail call ptr @PyLong_FromVoidPtr(ptr noundef %.0.copyload) #14
  br label %64

53:                                               ; preds = %28, %26, %24, %21
  %.061 = phi i64 [ %.0.copyload20, %28 ], [ %27, %26 ], [ %25, %24 ], [ %23, %21 ]
  %54 = tail call ptr @PyLong_FromLong(i64 noundef %.061) #14
  br label %64

55:                                               ; preds = %37, %35, %33
  %.060 = phi i64 [ %.0.copyload12, %37 ], [ %36, %35 ], [ %34, %33 ]
  %56 = tail call ptr @PyLong_FromUnsignedLong(i64 noundef %.060) #14
  br label %64

57:                                               ; preds = %49, %48, %46
  %.062 = phi double [ %50, %49 ], [ %.0.copyload2, %48 ], [ %47, %46 ]
  %58 = tail call ptr @PyFloat_FromDouble(double noundef %.062) #14
  br label %64

59:                                               ; preds = %15
  %60 = tail call ptr @PyBytes_FromStringAndSize(ptr noundef %1, i64 noundef 1) #14
  br label %64

61:                                               ; preds = %15
  %62 = load ptr, ptr @PyExc_NotImplementedError, align 8, !tbaa !104
  %63 = tail call ptr (ptr, ptr, ...) @PyErr_Format(ptr noundef %62, ptr noundef nonnull @.str.13, ptr noundef nonnull %2) #14
  br label %64

64:                                               ; preds = %17, %53, %55, %38, %40, %42, %44, %57, %29, %59, %51, %61, %13
  %.0 = phi ptr [ null, %13 ], [ null, %61 ], [ %52, %51 ], [ %60, %59 ], [ %58, %57 ], [ %45, %44 ], [ %43, %42 ], [ %41, %40 ], [ %39, %38 ], [ %56, %55 ], [ %32, %29 ], [ %54, %53 ], [ %20, %17 ]
  ret ptr %.0
}